target datalayout = "e-m:e-p270:32:32-p271:32:32-p272:64:64-i64:64-i128:128-f80:128-n8:16:32:64-S128"
target triple = "x86_64-pc-linux-gnu"

%struct._ftype_t = type { i32, i32, ptr, ptr, ptr, ptr, ptr, ptr, ptr, ptr, ptr, ptr, ptr, ptr, ptr, %union.anon, %union.anon.0, ptr, ptr, ptr, ptr, ptr, ptr, ptr, ptr, ptr, ptr, ptr, ptr, ptr, ptr, ptr }
%union.anon = type { ptr }
%union.anon.0 = type { ptr }
%struct._fvalue_t = type { ptr, %union.anon.1 }
%union.anon.1 = type { %struct._protocol_value_t }
%struct._protocol_value_t = type { ptr, i32, ptr, i8 }

@.str.102 = private unnamed_addr constant [1 x i8] zeroinitializer, align 1
@.str.103 = private unnamed_addr constant [21 x i8] c"epan/ftypes/ftypes.c\00", align 1
@__func__.fvalue_length2 = private unnamed_addr constant [15 x i8] c"fvalue_length2\00", align 1
@.str.104 = private unnamed_addr constant [23 x i8] c"fv->ftype->len is NULL\00", align 1

; Function Attrs: null_pointer_is_valid sspstrong uwtable
define i64 @fvalue_length2(ptr noundef %0) #0 {
  %2 = alloca i64, align 8
  %3 = alloca ptr, align 8
  store ptr %0, ptr %3, align 8
  %4 = load ptr, ptr %3, align 8
  %5 = getelementptr inbounds nuw %struct._fvalue_t, ptr %4, i32 0, i32 0
  %6 = load ptr, ptr %5, align 8
  %7 = getelementptr inbounds nuw %struct._ftype_t, ptr %6, i32 0, i32 23
  %8 = load ptr, ptr %7, align 8
  %9 = icmp ne ptr %8, null
  br i1 %9, label %13, label %10

10:                                               ; preds = %1
  br label %11

11:                                               ; preds = %10
  call void (ptr, i32, ptr, i64, ptr, ptr, ...) @ws_log_full(ptr noundef @.str.102, i32 noundef 6, ptr noundef @.str.103, i64 noundef 715, ptr noundef @__func__.fvalue_length2, ptr noundef @.str.104)
  br label %12

12:                                               ; preds = %11
  store i64 0, ptr %2, align 8
  br label %22

13:                                               ; preds = %1
  %14 = load ptr, ptr %3, align 8
  %15 = getelementptr inbounds nuw %struct._fvalue_t, ptr %14, i32 0, i32 0
  %16 = load ptr, ptr %15, align 8
  %17 = getelementptr inbounds nuw %struct._ftype_t, ptr %16, i32 0, i32 23
  %18 = load ptr, ptr %17, align 8
  %19 = load ptr, ptr %3, align 8
  %20 = call i32 %18(ptr noundef %19)
  %21 = zext i32 %20 to i64
  store i64 %21, ptr %2, align 8
  br label %22

22:                                               ; preds = %13, %12
  %23 = load i64, ptr %2, align 8
  ret i64 %23
}