; Function Attrs: null_pointer_is_valid sspstrong uwtable
define range(i64 0, 4294967296) i64 @fvalue_length2(ptr noundef %0) local_unnamed_addr #0 {
  %2 = load ptr, ptr %0, align 8
  %3 = getelementptr inbounds nuw i8, ptr %2, i64 176
  %4 = load ptr, ptr %3, align 8
  %.not = icmp eq ptr %4, null
  br i1 %.not, label %5, label %6

5:                                                ; preds = %1
  tail call void (ptr, i32, ptr, i64, ptr, ptr, ...) @ws_log_full(ptr noundef nonnull @.str.102, i32 noundef 6, ptr noundef nonnull @.str.103, i64 noundef 715, ptr noundef nonnull @__func__.fvalue_length2, ptr noundef nonnull @.str.104)
  br label %9

6:                                                ; preds = %1
  %7 = tail call i32 %4(ptr noundef %0)
  %8 = zext i32 %7 to i64
  br label %9

9:                                                ; preds = %6, %5
  %.0 = phi i64 [ %8, %6 ], [ 0, %5 ]
  ret i64 %.0
}